     1  = 0000000A                              CYLS	EQU	10
     2 00000000                                 
     3                                          ORG	0x7C00
     4 00007C00                                 
     5 00007C00 EB 4E                           JMP 	entry
     6 00007C02 90                              DB	0X90
     7 00007C03 48 45 4C 4C 4F 49 50 4C         DB	"HELLOIPL"		; ブ`トセクタの名前を自由にいてよい（8バイト）
     8 00007C0B 0200                            DW	512				; 1セクタの大きさ（512にしなければいけない）
     9 00007C0D 01                              DB	1				; クラスタの大きさ（1セクタにしなければいけない）
    10 00007C0E 0001                            DW	1				; FATがどこから始まるか（普通は1セクタ目からにする）
    11 00007C10 02                              DB	2				; FATの数（2にしなければいけない）
    12 00007C11 00E0                            DW	224				; ル`トディレクトリI域の大きさ（普通は224エントリにする）
    13 00007C13 0B40                            DW	2880			; このドライブの大きさ（2880セクタにしなければいけない）
    14 00007C15 F0                              DB	0xf0			; メディアのタイプ（0xf0にしなければいけない）
    15 00007C16 0009                            DW	9				; FATI域のLさ（9セクタにしなければいけない）
    16 00007C18 0012                            DW	18				; 1トラックにいくつのセクタがあるか（18にしなければいけない）
    17 00007C1A 0002                            DW	2				; ヘッドの数（2にしなければいけない）
    18 00007C1C 00000000                        DD	0				; パ`ティションを使ってないのでここは必ず0
    19 00007C20 00000B40                        DD	2880			; このドライブ大きさをもう一度く
    20 00007C24 00 00 29                        DB	0,0,0x29		; よくわからないけどこのにしておくといいらしい
    21 00007C27 FFFFFFFF                        DD	0xffffffff		; たぶんボリュ`ムシリアル番号
    22 00007C2B 48 45 4C 4C 4F 2D 4F 53 20 20   DB	"HELLO-OS   "	; ディスクの名前（11バイト）
       00007C35 20 
    23 00007C36 46 41 54 31 32 20 20 20         DB	"FAT12   "		; フォ`マットの名前（8バイト）
    24 00007C3E 00 00 00 00 00 00 00 00 00 00   RESB	18				; とりあえず18バイトあけておく
       00007C48 00 00 00 00 00 00 00 00 
    25 00007C50                                 
    26 00007C50                                 entry:
    27 00007C50 B8 0000                         MOV	AX,	0
    28 00007C53 8E D0                           MOV	SS,	AX
    29 00007C55 BC 7C00                         MOV	SP,	0x7C00
    30 00007C58 8E D8                           MOV	DS,	AX
    31 00007C5A                                 
    32 00007C5A B8 0820                         MOV	AX,	0x0820
    33 00007C5D 8E C0                           MOV	ES,	AX
    34 00007C5F B5 00                           MOV	CH,	0	;0柱面
    35 00007C61 B6 00                           MOV	DH,	0	;0磁头
    36 00007C63 B1 02                           MOV	CL,	2	;2扇区
    37 00007C65                                 
    38 00007C65                                 readloop:
    39 00007C65 BE 0000                         MOV	SI,	0	;记录失败次数的寄存器
    40 00007C68                                 
    41 00007C68                                 retry:
    42 00007C68 B4 02                           MOV	AH,	0x02	;read disk
    43 00007C6A B0 01                           MOV	AL,	1	;
    44 00007C6C BB 0000                         MOV	BX,	0
    45 00007C6F B2 00                           MOV	DL,	0x00
    46 00007C71 CD 13                           INT	0X13
    47 00007C73 73 10                           JNC	next
    48 00007C75 83 C6 01                        ADD	SI,	1
    49 00007C78 83 FE 05                        CMP	SI, 	5
    50 00007C7B 73 35                           JAE	err
    51 00007C7D B4 00                           MOV	AH,	0x00
    52 00007C7F B2 00                           MOV	DL,	0x00
    53 00007C81 CD 13                           INT	0x13
    54 00007C83 EB E3                           JMP	retry
    55 00007C85                                 
    56 00007C85                                 next:
    57 00007C85 8C C0                           mov 	ax,	es
    58 00007C87 05 0020                         add	ax,	0x20	;段加0x20，即地址域增加512Byte
    59 00007C8A 8E C0                           mov	es,	ax
    60 00007C8C 80 C1 01                        add	cl,	1
    61 00007C8F 80 F9 12                        cmp	cl,	18
    62 00007C92 76 D1                           jbe	readloop
    63 00007C94 B1 01                           mov	cl,	1
    64 00007C96 80 C6 01                        add	dh,	1
    65 00007C99 80 FE 02                        cmp	dh,	2
    66 00007C9C 72 C7                           jb	readloop
    67 00007C9E B6 00                           mov	dh,	0
    68 00007CA0 80 C5 01                        add	ch,	1
    69 00007CA3 80 FD 0A                        cmp	ch,	CYLS
    70 00007CA6 72 BD                           jb	readloop
    71 00007CA8                                 
    72 00007CA8 88 2E 0FF0                      mov	[0x0ff0],	ch
    73 00007CAC E9 4551                         jmp	0xc200	;正确的读完了所有的扇区
    74 00007CAF                                 
    75 00007CAF                                 fin:
    76 00007CAF F4                              HLT
    77 00007CB0 EB FD                           JMP	fin
    78 00007CB2                                 
    79 00007CB2                                 err:
    80 00007CB2 BE 7CC7                         MOV	SI,	msg
    81 00007CB5                                 
    82 00007CB5                                 printf:
    83 00007CB5 8A 04                           MOV	AL,	[SI]
    84 00007CB7 83 C6 01                        ADD	SI,	1
    85 00007CBA 3C 00                           CMP	AL,	0
    86 00007CBC 74 F1                           JE	fin
    87 00007CBE B4 0E                           MOV	AH,	0x0E
    88 00007CC0 BB 000F                         MOV	BX,	15
    89 00007CC3 CD 10                           INT	0X10
    90 00007CC5 EB EE                           JMP	printf
    91 00007CC7                                 
    92 00007CC7                                 msg:
    93 00007CC7 0A 0A                           DB	0x0A, 0x0A
    94 00007CC9 52 45 41 44 20 44 49 53 4B 20   DB	"READ DISK ERROR!"
       00007CD3 45 52 52 4F 52 21 
    95 00007CD9 0A                              DB	0x0A
    96 00007CDA 00                              DB	0
    97 00007CDB                                 
    98 00007CDB 00 00 00 00 00 00 00 00 00 00   RESB	0x7dfe-$
       00007CE5 00 00 00 00 00 00 00 00 00 00 
       00007CEF 00 00 00 00 00 00 00 00 00 00 
       00007CF9 00 00 00 00 00 00 00 00 00 00 
       00007D03 00 00 00 00 00 00 00 00 00 00 
       00007D0D 00 00 00 00 00 00 00 00 00 00 
       00007D17 00 00 00 00 00 00 00 00 00 00 
       00007D21 00 00 00 00 00 00 00 00 00 00 
       00007D2B 00 00 00 00 00 00 00 00 00 00 
       00007D35 00 00 00 00 00 00 00 00 00 00 
       00007D3F 00 00 00 00 00 00 00 00 00 00 
       00007D49 00 00 00 00 00 00 00 00 00 00 
       00007D53 00 00 00 00 00 00 00 00 00 00 
       00007D5D 00 00 00 00 00 00 00 00 00 00 
       00007D67 00 00 00 00 00 00 00 00 00 00 
       00007D71 00 00 00 00 00 00 00 00 00 00 
       00007D7B 00 00 00 00 00 00 00 00 00 00 
       00007D85 00 00 00 00 00 00 00 00 00 00 
       00007D8F 00 00 00 00 00 00 00 00 00 00 
       00007D99 00 00 00 00 00 00 00 00 00 00 
       00007DA3 00 00 00 00 00 00 00 00 00 00 
       00007DAD 00 00 00 00 00 00 00 00 00 00 
       00007DB7 00 00 00 00 00 00 00 00 00 00 
       00007DC1 00 00 00 00 00 00 00 00 00 00 
       00007DCB 00 00 00 00 00 00 00 00 00 00 
       00007DD5 00 00 00 00 00 00 00 00 00 00 
       00007DDF 00 00 00 00 00 00 00 00 00 00 
       00007DE9 00 00 00 00 00 00 00 00 00 00 
       00007DF3 00 00 00 00 00 00 00 00 00 00 
       00007DFD 00 
    99 00007DFE 55 AA                           DB	0x55, 0xAA
   100 00007E00                                 
   101 00007E00                                 ;填充部分
